; Function Attrs: mustprogress uwtable
define void @_ZN6duckdb8NextHourERiS0_S0_S0_(ptr noundef nonnull align 4 captures(none) dereferenceable(4) %0, ptr noundef nonnull align 4 captures(none) dereferenceable(4) %1, ptr noundef nonnull align 4 captures(none) dereferenceable(4) %2, ptr noundef nonnull align 4 captures(none) dereferenceable(4) %3) local_unnamed_addr #0 {
  %5 = load i32, ptr %3, align 4, !tbaa !86
  %6 = add nsw i32 %5, 1
  store i32 %6, ptr %3, align 4, !tbaa !86
  %7 = icmp sgt i32 %5, 22
  br i1 %7, label %8, label %21

8:                                                ; preds = %4
  %9 = load i32, ptr %2, align 4, !tbaa !86
  %10 = add nsw i32 %9, 1
  store i32 %10, ptr %2, align 4, !tbaa !86
  %11 = load i32, ptr %0, align 4, !tbaa !86
  %12 = load i32, ptr %1, align 4, !tbaa !86
  %13 = tail call noundef zeroext i1 @_ZN6duckdb4Date7IsValidEiii(i32 noundef %11, i32 noundef %12, i32 noundef %10)
  br i1 %13, label %_ZN6duckdb7NextDayERiS0_S0_.exit, label %14

14:                                               ; preds = %8
  %15 = load i32, ptr %1, align 4, !tbaa !86
  %16 = add nsw i32 %15, 1
  store i32 %16, ptr %1, align 4, !tbaa !86
  %17 = icmp eq i32 %16, 13
  br i1 %17, label %18, label %_ZN6duckdb9NextMonthERiS0_.exit.i

18:                                               ; preds = %14
  %19 = load i32, ptr %0, align 4, !tbaa !86
  %20 = add nsw i32 %19, 1
  store i32 %20, ptr %0, align 4, !tbaa !86
  store i32 1, ptr %1, align 4, !tbaa !86
  br label %_ZN6duckdb9NextMonthERiS0_.exit.i

_ZN6duckdb9NextMonthERiS0_.exit.i:                ; preds = %18, %14
  store i32 1, ptr %2, align 4, !tbaa !86
  br label %_ZN6duckdb7NextDayERiS0_S0_.exit

_ZN6duckdb7NextDayERiS0_S0_.exit:                 ; preds = %8, %_ZN6duckdb9NextMonthERiS0_.exit.i
  store i32 0, ptr %3, align 4, !tbaa !86
  br label %21

21:                                               ; preds = %_ZN6duckdb7NextDayERiS0_S0_.exit, %4
  ret void
}